target datalayout = "e-m:e-p270:32:32-p271:32:32-p272:64:64-i64:64-i128:128-f80:128-n8:16:32:64-S128"
target triple = "x86_64-pc-linux-gnu"

; Function Attrs: null_pointer_is_valid sspstrong uwtable
define hidden i32 @getExtensionObjectType(ptr noundef %0, ptr noundef %1) #0 {
  %3 = alloca ptr, align 8
  %4 = alloca ptr, align 8
  %5 = alloca i32, align 4
  %6 = alloca i8, align 1
  %7 = alloca i32, align 4
  store ptr %0, ptr %3, align 8
  store ptr %1, ptr %4, align 8
  call void @llvm.lifetime.start.p0(i64 4, ptr %5) #3
  %8 = load ptr, ptr %4, align 8
  %9 = load i32, ptr %8, align 4
  store i32 %9, ptr %5, align 4
  call void @llvm.lifetime.start.p0(i64 1, ptr %6) #3
  call void @llvm.lifetime.start.p0(i64 4, ptr %7) #3
  store i32 0, ptr %7, align 4
  %10 = load ptr, ptr %3, align 8
  %11 = load i32, ptr %5, align 4
  %12 = call zeroext i8 @tvb_get_uint8(ptr noundef %10, i32 noundef %11)
  store i8 %12, ptr %6, align 1
  %13 = load i32, ptr %5, align 4
  %14 = add i32 %13, 1
  store i32 %14, ptr %5, align 4
  %15 = load i8, ptr %6, align 1
  %16 = zext i8 %15 to i32
  switch i32 %16, label %36 [
    i32 0, label %17
    i32 1, label %22
    i32 2, label %29
    i32 3, label %35
    i32 4, label %35
    i32 5, label %35
    i32 6, label %35
  ]

17:                                               ; preds = %2
  %18 = load ptr, ptr %3, align 8
  %19 = load i32, ptr %5, align 4
  %20 = call zeroext i8 @tvb_get_uint8(ptr noundef %18, i32 noundef %19)
  %21 = zext i8 %20 to i32
  store i32 %21, ptr %7, align 4
  br label %36

22:                                               ; preds = %2
  %23 = load i32, ptr %5, align 4
  %24 = add i32 %23, 1
  store i32 %24, ptr %5, align 4
  %25 = load ptr, ptr %3, align 8
  %26 = load i32, ptr %5, align 4
  %27 = call zeroext i16 @tvb_get_letohs(ptr noundef %25, i32 noundef %26)
  %28 = zext i16 %27 to i32
  store i32 %28, ptr %7, align 4
  br label %36

29:                                               ; preds = %2
  %30 = load i32, ptr %5, align 4
  %31 = add i32 %30, 2
  store i32 %31, ptr %5, align 4
  %32 = load ptr, ptr %3, align 8
  %33 = load i32, ptr %5, align 4
  %34 = call i32 @tvb_get_letohl(ptr noundef %32, i32 noundef %33)
  store i32 %34, ptr %7, align 4
  br label %36

35:                                               ; preds = %2, %2, %2, %2
  br label %36

36:                                               ; preds = %2, %35, %29, %22, %17
  %37 = load i32, ptr %7, align 4
  call void @llvm.lifetime.end.p0(i64 4, ptr %7) #3
  call void @llvm.lifetime.end.p0(i64 1, ptr %6) #3
  call void @llvm.lifetime.end.p0(i64 4, ptr %5) #3
  ret i32 %37
}