; Function Attrs: null_pointer_is_valid sspstrong uwtable
define hidden i32 @getExtensionObjectType(ptr noundef %0, ptr noundef readonly captures(none) %1) local_unnamed_addr #0 {
  %3 = load i32, ptr %1, align 4
  %4 = tail call zeroext i8 @tvb_get_uint8(ptr noundef %0, i32 noundef %3)
  switch i8 %4, label %16 [
    i8 0, label %5
    i8 1, label %9
    i8 2, label %13
  ]

5:                                                ; preds = %2
  %6 = add i32 %3, 1
  %7 = tail call zeroext i8 @tvb_get_uint8(ptr noundef %0, i32 noundef %6)
  %8 = zext i8 %7 to i32
  br label %16

9:                                                ; preds = %2
  %10 = add i32 %3, 2
  %11 = tail call zeroext i16 @tvb_get_letohs(ptr noundef %0, i32 noundef %10)
  %12 = zext i16 %11 to i32
  br label %16

13:                                               ; preds = %2
  %14 = add i32 %3, 3
  %15 = tail call i32 @tvb_get_letohl(ptr noundef %0, i32 noundef %14)
  br label %16

16:                                               ; preds = %13, %9, %5, %2
  %.0 = phi i32 [ 0, %2 ], [ %15, %13 ], [ %12, %9 ], [ %8, %5 ]
  ret i32 %.0
}